target datalayout = "e-m:e-p270:32:32-p271:32:32-p272:64:64-i64:64-i128:128-f80:128-n8:16:32:64-S128"
target triple = "x86_64-unknown-linux-gnu"

%struct.ecc_point = type { [1 x %struct.sp_int], [1 x %struct.sp_int], [1 x %struct.sp_int] }
%struct.sp_int = type { i32, i32, [129 x i64] }

; Function Attrs: nounwind uwtable
define i32 @ecc_projective_add_point_safe(ptr noundef %A, ptr noundef %B, ptr noundef %R, ptr noundef %a, ptr noundef %modulus, i64 noundef %mp, ptr noundef %infinity) #0 {
entry:
  %A.addr = alloca ptr, align 8
  %B.addr = alloca ptr, align 8
  %R.addr = alloca ptr, align 8
  %a.addr = alloca ptr, align 8
  %modulus.addr = alloca ptr, align 8
  %mp.addr = alloca i64, align 8
  %infinity.addr = alloca ptr, align 8
  %err = alloca i32, align 4
  store ptr %A, ptr %A.addr, align 8
  store ptr %B, ptr %B.addr, align 8
  store ptr %R, ptr %R.addr, align 8
  store ptr %a, ptr %a.addr, align 8
  store ptr %modulus, ptr %modulus.addr, align 8
  store i64 %mp, ptr %mp.addr, align 8
  store ptr %infinity, ptr %infinity.addr, align 8
  %0 = load ptr, ptr %A.addr, align 8
  %x = getelementptr inbounds %struct.ecc_point, ptr %0, i32 0, i32 0
  %arraydecay = getelementptr inbounds [1 x %struct.sp_int], ptr %x, i64 0, i64 0
  %used = getelementptr inbounds %struct.sp_int, ptr %arraydecay, i32 0, i32 0
  %1 = load i32, ptr %used, align 8
  %cmp = icmp eq i32 %1, 0
  br i1 %cmp, label %land.lhs.true, label %if.else

land.lhs.true:                                    ; preds = %entry
  %2 = load ptr, ptr %A.addr, align 8
  %y = getelementptr inbounds %struct.ecc_point, ptr %2, i32 0, i32 1
  %arraydecay1 = getelementptr inbounds [1 x %struct.sp_int], ptr %y, i64 0, i64 0
  %used2 = getelementptr inbounds %struct.sp_int, ptr %arraydecay1, i32 0, i32 0
  %3 = load i32, ptr %used2, align 8
  %cmp3 = icmp eq i32 %3, 0
  br i1 %cmp3, label %if.then, label %if.else

if.then:                                          ; preds = %land.lhs.true
  %4 = load ptr, ptr %B.addr, align 8
  %5 = load ptr, ptr %R.addr, align 8
  %call = call i32 @wc_ecc_copy_point(ptr noundef %4, ptr noundef %5)
  store i32 %call, ptr %err, align 4
  br label %if.end121

if.else:                                          ; preds = %land.lhs.true, %entry
  %6 = load ptr, ptr %B.addr, align 8
  %x4 = getelementptr inbounds %struct.ecc_point, ptr %6, i32 0, i32 0
  %arraydecay5 = getelementptr inbounds [1 x %struct.sp_int], ptr %x4, i64 0, i64 0
  %used6 = getelementptr inbounds %struct.sp_int, ptr %arraydecay5, i32 0, i32 0
  %7 = load i32, ptr %used6, align 8
  %cmp7 = icmp eq i32 %7, 0
  br i1 %cmp7, label %land.lhs.true8, label %if.else15

land.lhs.true8:                                   ; preds = %if.else
  %8 = load ptr, ptr %B.addr, align 8
  %y9 = getelementptr inbounds %struct.ecc_point, ptr %8, i32 0, i32 1
  %arraydecay10 = getelementptr inbounds [1 x %struct.sp_int], ptr %y9, i64 0, i64 0
  %used11 = getelementptr inbounds %struct.sp_int, ptr %arraydecay10, i32 0, i32 0
  %9 = load i32, ptr %used11, align 8
  %cmp12 = icmp eq i32 %9, 0
  br i1 %cmp12, label %if.then13, label %if.else15

if.then13:                                        ; preds = %land.lhs.true8
  %10 = load ptr, ptr %A.addr, align 8
  %11 = load ptr, ptr %R.addr, align 8
  %call14 = call i32 @wc_ecc_copy_point(ptr noundef %10, ptr noundef %11)
  store i32 %call14, ptr %err, align 4
  br label %if.end120

if.else15:                                        ; preds = %land.lhs.true8, %if.else
  %12 = load ptr, ptr %A.addr, align 8
  %x16 = getelementptr inbounds %struct.ecc_point, ptr %12, i32 0, i32 0
  %arraydecay17 = getelementptr inbounds [1 x %struct.sp_int], ptr %x16, i64 0, i64 0
  %13 = load ptr, ptr %B.addr, align 8
  %x18 = getelementptr inbounds %struct.ecc_point, ptr %13, i32 0, i32 0
  %arraydecay19 = getelementptr inbounds [1 x %struct.sp_int], ptr %x18, i64 0, i64 0
  %call20 = call i32 @sp_cmp(ptr noundef %arraydecay17, ptr noundef %arraydecay19)
  %cmp21 = icmp eq i32 %call20, 0
  br i1 %cmp21, label %land.lhs.true22, label %if.else58

land.lhs.true22:                                  ; preds = %if.else15
  %14 = load ptr, ptr %A.addr, align 8
  %z = getelementptr inbounds %struct.ecc_point, ptr %14, i32 0, i32 2
  %arraydecay23 = getelementptr inbounds [1 x %struct.sp_int], ptr %z, i64 0, i64 0
  %15 = load ptr, ptr %B.addr, align 8
  %z24 = getelementptr inbounds %struct.ecc_point, ptr %15, i32 0, i32 2
  %arraydecay25 = getelementptr inbounds [1 x %struct.sp_int], ptr %z24, i64 0, i64 0
  %call26 = call i32 @sp_cmp(ptr noundef %arraydecay23, ptr noundef %arraydecay25)
  %cmp27 = icmp eq i32 %call26, 0
  br i1 %cmp27, label %if.then28, label %if.else58

if.then28:                                        ; preds = %land.lhs.true22
  %16 = load ptr, ptr %A.addr, align 8
  %y29 = getelementptr inbounds %struct.ecc_point, ptr %16, i32 0, i32 1
  %arraydecay30 = getelementptr inbounds [1 x %struct.sp_int], ptr %y29, i64 0, i64 0
  %17 = load ptr, ptr %B.addr, align 8
  %y31 = getelementptr inbounds %struct.ecc_point, ptr %17, i32 0, i32 1
  %arraydecay32 = getelementptr inbounds [1 x %struct.sp_int], ptr %y31, i64 0, i64 0
  %call33 = call i32 @sp_cmp(ptr noundef %arraydecay30, ptr noundef %arraydecay32)
  %cmp34 = icmp eq i32 %call33, 0
  br i1 %cmp34, label %if.then35, label %if.else37

if.then35:                                        ; preds = %if.then28
  %18 = load ptr, ptr %B.addr, align 8
  %19 = load ptr, ptr %R.addr, align 8
  %20 = load ptr, ptr %a.addr, align 8
  %21 = load ptr, ptr %modulus.addr, align 8
  %22 = load i64, ptr %mp.addr, align 8
  %call36 = call i32 @_ecc_projective_dbl_point(ptr noundef %18, ptr noundef %19, ptr noundef %20, ptr noundef %21, i64 noundef %22)
  store i32 %call36, ptr %err, align 4
  br label %if.end57

if.else37:                                        ; preds = %if.then28
  %23 = load ptr, ptr %R.addr, align 8
  %x38 = getelementptr inbounds %struct.ecc_point, ptr %23, i32 0, i32 0
  %arraydecay39 = getelementptr inbounds [1 x %struct.sp_int], ptr %x38, i64 0, i64 0
  %call40 = call i32 @sp_set(ptr noundef %arraydecay39, i64 noundef 0)
  store i32 %call40, ptr %err, align 4
  %24 = load i32, ptr %err, align 4
  %cmp41 = icmp eq i32 %24, 0
  br i1 %cmp41, label %if.then42, label %if.end

if.then42:                                        ; preds = %if.else37
  %25 = load ptr, ptr %R.addr, align 8
  %y43 = getelementptr inbounds %struct.ecc_point, ptr %25, i32 0, i32 1
  %arraydecay44 = getelementptr inbounds [1 x %struct.sp_int], ptr %y43, i64 0, i64 0
  %call45 = call i32 @sp_set(ptr noundef %arraydecay44, i64 noundef 0)
  store i32 %call45, ptr %err, align 4
  br label %if.end

if.end:                                           ; preds = %if.then42, %if.else37
  %26 = load i32, ptr %err, align 4
  %cmp46 = icmp eq i32 %26, 0
  br i1 %cmp46, label %if.then47, label %if.end51

if.then47:                                        ; preds = %if.end
  %27 = load ptr, ptr %R.addr, align 8
  %z48 = getelementptr inbounds %struct.ecc_point, ptr %27, i32 0, i32 2
  %arraydecay49 = getelementptr inbounds [1 x %struct.sp_int], ptr %z48, i64 0, i64 0
  %call50 = call i32 @sp_set(ptr noundef %arraydecay49, i64 noundef 1)
  store i32 %call50, ptr %err, align 4
  br label %if.end51

if.end51:                                         ; preds = %if.then47, %if.end
  %28 = load i32, ptr %err, align 4
  %cmp52 = icmp eq i32 %28, 0
  br i1 %cmp52, label %land.lhs.true53, label %if.end56

land.lhs.true53:                                  ; preds = %if.end51
  %29 = load ptr, ptr %infinity.addr, align 8
  %cmp54 = icmp ne ptr %29, null
  br i1 %cmp54, label %if.then55, label %if.end56

if.then55:                                        ; preds = %land.lhs.true53
  %30 = load ptr, ptr %infinity.addr, align 8
  store i32 1, ptr %30, align 4
  br label %if.end56

if.end56:                                         ; preds = %if.then55, %land.lhs.true53, %if.end51
  br label %if.end57

if.end57:                                         ; preds = %if.end56, %if.then35
  br label %if.end119

if.else58:                                        ; preds = %land.lhs.true22, %if.else15
  %31 = load ptr, ptr %A.addr, align 8
  %32 = load ptr, ptr %B.addr, align 8
  %33 = load ptr, ptr %R.addr, align 8
  %34 = load ptr, ptr %a.addr, align 8
  %35 = load ptr, ptr %modulus.addr, align 8
  %36 = load i64, ptr %mp.addr, align 8
  %call59 = call i32 @_ecc_projective_add_point(ptr noundef %31, ptr noundef %32, ptr noundef %33, ptr noundef %34, ptr noundef %35, i64 noundef %36)
  store i32 %call59, ptr %err, align 4
  %37 = load i32, ptr %err, align 4
  %cmp60 = icmp eq i32 %37, 0
  br i1 %cmp60, label %land.lhs.true61, label %if.end118

land.lhs.true61:                                  ; preds = %if.else58
  %38 = load ptr, ptr %R.addr, align 8
  %z62 = getelementptr inbounds %struct.ecc_point, ptr %38, i32 0, i32 2
  %arraydecay63 = getelementptr inbounds [1 x %struct.sp_int], ptr %z62, i64 0, i64 0
  %used64 = getelementptr inbounds %struct.sp_int, ptr %arraydecay63, i32 0, i32 0
  %39 = load i32, ptr %used64, align 8
  %cmp65 = icmp eq i32 %39, 0
  br i1 %cmp65, label %if.then66, label %if.end118

if.then66:                                        ; preds = %land.lhs.true61
  %40 = load ptr, ptr %R.addr, align 8
  %x67 = getelementptr inbounds %struct.ecc_point, ptr %40, i32 0, i32 0
  %arraydecay68 = getelementptr inbounds [1 x %struct.sp_int], ptr %x67, i64 0, i64 0
  %used69 = getelementptr inbounds %struct.sp_int, ptr %arraydecay68, i32 0, i32 0
  %41 = load i32, ptr %used69, align 8
  %cmp70 = icmp eq i32 %41, 0
  br i1 %cmp70, label %land.lhs.true71, label %if.else96

land.lhs.true71:                                  ; preds = %if.then66
  %42 = load ptr, ptr %R.addr, align 8
  %y72 = getelementptr inbounds %struct.ecc_point, ptr %42, i32 0, i32 1
  %arraydecay73 = getelementptr inbounds [1 x %struct.sp_int], ptr %y72, i64 0, i64 0
  %used74 = getelementptr inbounds %struct.sp_int, ptr %arraydecay73, i32 0, i32 0
  %43 = load i32, ptr %used74, align 8
  %cmp75 = icmp eq i32 %43, 0
  br i1 %cmp75, label %if.then76, label %if.else96

if.then76:                                        ; preds = %land.lhs.true71
  %44 = load ptr, ptr %B.addr, align 8
  %z77 = getelementptr inbounds %struct.ecc_point, ptr %44, i32 0, i32 2
  %arraydecay78 = getelementptr inbounds [1 x %struct.sp_int], ptr %z77, i64 0, i64 0
  %used79 = getelementptr inbounds %struct.sp_int, ptr %arraydecay78, i32 0, i32 0
  %45 = load i32, ptr %used79, align 8
  %cmp80 = icmp eq i32 %45, 0
  br i1 %cmp80, label %if.then81, label %if.else93

if.then81:                                        ; preds = %if.then76
  %46 = load ptr, ptr %B.addr, align 8
  %47 = load ptr, ptr %R.addr, align 8
  %call82 = call i32 @wc_ecc_copy_point(ptr noundef %46, ptr noundef %47)
  store i32 %call82, ptr %err, align 4
  %48 = load i32, ptr %err, align 4
  %cmp83 = icmp eq i32 %48, 0
  br i1 %cmp83, label %if.then84, label %if.end88

if.then84:                                        ; preds = %if.then81
  %49 = load ptr, ptr %R.addr, align 8
  %z85 = getelementptr inbounds %struct.ecc_point, ptr %49, i32 0, i32 2
  %arraydecay86 = getelementptr inbounds [1 x %struct.sp_int], ptr %z85, i64 0, i64 0
  %50 = load ptr, ptr %modulus.addr, align 8
  %call87 = call i32 @sp_mont_norm(ptr noundef %arraydecay86, ptr noundef %50)
  store i32 %call87, ptr %err, align 4
  br label %if.end88

if.end88:                                         ; preds = %if.then84, %if.then81
  %51 = load i32, ptr %err, align 4
  %cmp89 = icmp eq i32 %51, 0
  br i1 %cmp89, label %if.then90, label %if.end92

if.then90:                                        ; preds = %if.end88
  %52 = load ptr, ptr %R.addr, align 8
  %53 = load ptr, ptr %R.addr, align 8
  %54 = load ptr, ptr %a.addr, align 8
  %55 = load ptr, ptr %modulus.addr, align 8
  %56 = load i64, ptr %mp.addr, align 8
  %call91 = call i32 @_ecc_projective_dbl_point(ptr noundef %52, ptr noundef %53, ptr noundef %54, ptr noundef %55, i64 noundef %56)
  store i32 %call91, ptr %err, align 4
  br label %if.end92

if.end92:                                         ; preds = %if.then90, %if.end88
  br label %if.end95

if.else93:                                        ; preds = %if.then76
  %57 = load ptr, ptr %B.addr, align 8
  %58 = load ptr, ptr %R.addr, align 8
  %59 = load ptr, ptr %a.addr, align 8
  %60 = load ptr, ptr %modulus.addr, align 8
  %61 = load i64, ptr %mp.addr, align 8
  %call94 = call i32 @_ecc_projective_dbl_point(ptr noundef %57, ptr noundef %58, ptr noundef %59, ptr noundef %60, i64 noundef %61)
  store i32 %call94, ptr %err, align 4
  br label %if.end95

if.end95:                                         ; preds = %if.else93, %if.end92
  br label %if.end117

if.else96:                                        ; preds = %land.lhs.true71, %if.then66
  %62 = load ptr, ptr %R.addr, align 8
  %x97 = getelementptr inbounds %struct.ecc_point, ptr %62, i32 0, i32 0
  %arraydecay98 = getelementptr inbounds [1 x %struct.sp_int], ptr %x97, i64 0, i64 0
  %call99 = call i32 @sp_set(ptr noundef %arraydecay98, i64 noundef 0)
  store i32 %call99, ptr %err, align 4
  %63 = load i32, ptr %err, align 4
  %cmp100 = icmp eq i32 %63, 0
  br i1 %cmp100, label %if.then101, label %if.end105

if.then101:                                       ; preds = %if.else96
  %64 = load ptr, ptr %R.addr, align 8
  %y102 = getelementptr inbounds %struct.ecc_point, ptr %64, i32 0, i32 1
  %arraydecay103 = getelementptr inbounds [1 x %struct.sp_int], ptr %y102, i64 0, i64 0
  %call104 = call i32 @sp_set(ptr noundef %arraydecay103, i64 noundef 0)
  store i32 %call104, ptr %err, align 4
  br label %if.end105

if.end105:                                        ; preds = %if.then101, %if.else96
  %65 = load i32, ptr %err, align 4
  %cmp106 = icmp eq i32 %65, 0
  br i1 %cmp106, label %if.then107, label %if.end111

if.then107:                                       ; preds = %if.end105
  %66 = load ptr, ptr %R.addr, align 8
  %z108 = getelementptr inbounds %struct.ecc_point, ptr %66, i32 0, i32 2
  %arraydecay109 = getelementptr inbounds [1 x %struct.sp_int], ptr %z108, i64 0, i64 0
  %call110 = call i32 @sp_set(ptr noundef %arraydecay109, i64 noundef 1)
  store i32 %call110, ptr %err, align 4
  br label %if.end111

if.end111:                                        ; preds = %if.then107, %if.end105
  %67 = load i32, ptr %err, align 4
  %cmp112 = icmp eq i32 %67, 0
  br i1 %cmp112, label %land.lhs.true113, label %if.end116

land.lhs.true113:                                 ; preds = %if.end111
  %68 = load ptr, ptr %infinity.addr, align 8
  %cmp114 = icmp ne ptr %68, null
  br i1 %cmp114, label %if.then115, label %if.end116

if.then115:                                       ; preds = %land.lhs.true113
  %69 = load ptr, ptr %infinity.addr, align 8
  store i32 1, ptr %69, align 4
  br label %if.end116

if.end116:                                        ; preds = %if.then115, %land.lhs.true113, %if.end111
  br label %if.end117

if.end117:                                        ; preds = %if.end116, %if.end95
  br label %if.end118

if.end118:                                        ; preds = %if.end117, %land.lhs.true61, %if.else58
  br label %if.end119

if.end119:                                        ; preds = %if.end118, %if.end57
  br label %if.end120

if.end120:                                        ; preds = %if.end119, %if.then13
  br label %if.end121

if.end121:                                        ; preds = %if.end120, %if.then
  %70 = load i32, ptr %err, align 4
  ret i32 %70
}