; Function Attrs: nounwind uwtable
define i32 @ecc_projective_add_point_safe(ptr noundef %A, ptr noundef %B, ptr noundef %R, ptr readnone captures(none) %a, ptr noundef %modulus, i64 noundef %mp, ptr noundef writeonly %infinity) local_unnamed_addr #2 {
entry:
  %0 = load i32, ptr %A, align 8
  %cmp = icmp eq i32 %0, 0
  br i1 %cmp, label %land.lhs.true, label %if.else

land.lhs.true:                                    ; preds = %entry
  %y = getelementptr inbounds nuw i8, ptr %A, i64 1040
  %1 = load i32, ptr %y, align 8
  %cmp3 = icmp eq i32 %1, 0
  br i1 %cmp3, label %if.then, label %if.else

if.then:                                          ; preds = %land.lhs.true
  %cmp.i = icmp eq ptr %B, null
  %cmp1.i = icmp eq ptr %R, null
  %or.cond.i = or i1 %cmp.i, %cmp1.i
  br i1 %or.cond.i, label %if.end121, label %if.end.i

if.end.i:                                         ; preds = %if.then
  %call.i = tail call i32 @sp_copy(ptr noundef nonnull %B, ptr noundef nonnull %R) #19
  %cmp4.not.i = icmp eq i32 %call.i, 0
  br i1 %cmp4.not.i, label %if.end6.i, label %if.end121

if.end6.i:                                        ; preds = %if.end.i
  %y.i = getelementptr inbounds nuw i8, ptr %B, i64 1040
  %y8.i = getelementptr inbounds nuw i8, ptr %R, i64 1040
  %call10.i = tail call i32 @sp_copy(ptr noundef nonnull %y.i, ptr noundef nonnull %y8.i) #19
  %cmp11.not.i = icmp eq i32 %call10.i, 0
  br i1 %cmp11.not.i, label %if.end13.i, label %if.end121

if.end13.i:                                       ; preds = %if.end6.i
  %z.i = getelementptr inbounds nuw i8, ptr %B, i64 2080
  %z15.i = getelementptr inbounds nuw i8, ptr %R, i64 2080
  %call17.i = tail call i32 @sp_copy(ptr noundef nonnull %z.i, ptr noundef nonnull %z15.i) #19
  br label %if.end121

if.else:                                          ; preds = %land.lhs.true, %entry
  %2 = load i32, ptr %B, align 8
  %cmp7 = icmp eq i32 %2, 0
  br i1 %cmp7, label %land.lhs.true8, label %if.else15

land.lhs.true8:                                   ; preds = %if.else
  %y9 = getelementptr inbounds nuw i8, ptr %B, i64 1040
  %3 = load i32, ptr %y9, align 8
  %cmp12 = icmp eq i32 %3, 0
  br i1 %cmp12, label %if.then13, label %if.else15

if.then13:                                        ; preds = %land.lhs.true8
  %cmp1.i58 = icmp eq ptr %R, null
  br i1 %cmp1.i58, label %if.end121, label %if.end.i60

if.end.i60:                                       ; preds = %if.then13
  %call.i61 = tail call i32 @sp_copy(ptr noundef nonnull %A, ptr noundef nonnull %R) #19
  %cmp4.not.i62 = icmp eq i32 %call.i61, 0
  br i1 %cmp4.not.i62, label %if.end6.i64, label %if.end121

if.end6.i64:                                      ; preds = %if.end.i60
  %y.i65 = getelementptr inbounds nuw i8, ptr %A, i64 1040
  %y8.i66 = getelementptr inbounds nuw i8, ptr %R, i64 1040
  %call10.i67 = tail call i32 @sp_copy(ptr noundef nonnull %y.i65, ptr noundef nonnull %y8.i66) #19
  %cmp11.not.i68 = icmp eq i32 %call10.i67, 0
  br i1 %cmp11.not.i68, label %if.end13.i69, label %if.end121

if.end13.i69:                                     ; preds = %if.end6.i64
  %z.i70 = getelementptr inbounds nuw i8, ptr %A, i64 2080
  %z15.i71 = getelementptr inbounds nuw i8, ptr %R, i64 2080
  %call17.i72 = tail call i32 @sp_copy(ptr noundef nonnull %z.i70, ptr noundef nonnull %z15.i71) #19
  br label %if.end121

if.else15:                                        ; preds = %land.lhs.true8, %if.else
  %call20 = tail call i32 @sp_cmp(ptr noundef nonnull %A, ptr noundef nonnull %B) #19
  %cmp21 = icmp eq i32 %call20, 0
  br i1 %cmp21, label %land.lhs.true22, label %if.else58

land.lhs.true22:                                  ; preds = %if.else15
  %z = getelementptr inbounds nuw i8, ptr %A, i64 2080
  %z24 = getelementptr inbounds nuw i8, ptr %B, i64 2080
  %call26 = tail call i32 @sp_cmp(ptr noundef nonnull %z, ptr noundef nonnull %z24) #19
  %cmp27 = icmp eq i32 %call26, 0
  br i1 %cmp27, label %if.then28, label %if.else58

if.then28:                                        ; preds = %land.lhs.true22
  %y29 = getelementptr inbounds nuw i8, ptr %A, i64 1040
  %y31 = getelementptr inbounds nuw i8, ptr %B, i64 1040
  %call33 = tail call i32 @sp_cmp(ptr noundef nonnull %y29, ptr noundef nonnull %y31) #19
  %cmp34 = icmp eq i32 %call33, 0
  br i1 %cmp34, label %if.then35, label %if.else37

if.then35:                                        ; preds = %if.then28
  %call36 = tail call fastcc i32 @_ecc_projective_dbl_point(ptr noundef nonnull %B, ptr noundef %R, ptr noundef %modulus, i64 noundef %mp)
  br label %if.end121

if.else37:                                        ; preds = %if.then28
  %call40 = tail call i32 @sp_set(ptr noundef %R, i64 noundef 0) #19
  %cmp41 = icmp eq i32 %call40, 0
  br i1 %cmp41, label %if.end, label %if.end121

if.end:                                           ; preds = %if.else37
  %y43 = getelementptr inbounds nuw i8, ptr %R, i64 1040
  %call45 = tail call i32 @sp_set(ptr noundef nonnull %y43, i64 noundef 0) #19
  %cmp46 = icmp eq i32 %call45, 0
  br i1 %cmp46, label %if.end51, label %if.end121

if.end51:                                         ; preds = %if.end
  %z48 = getelementptr inbounds nuw i8, ptr %R, i64 2080
  %call50 = tail call i32 @sp_set(ptr noundef nonnull %z48, i64 noundef 1) #19
  %cmp52 = icmp eq i32 %call50, 0
  %cmp54 = icmp ne ptr %infinity, null
  %or.cond = and i1 %cmp54, %cmp52
  br i1 %or.cond, label %if.then55, label %if.end121

if.then55:                                        ; preds = %if.end51
  store i32 1, ptr %infinity, align 4
  br label %if.end121

if.else58:                                        ; preds = %land.lhs.true22, %if.else15
  %call59 = tail call fastcc i32 @_ecc_projective_add_point(ptr noundef nonnull %A, ptr noundef nonnull %B, ptr noundef %R, ptr noundef %modulus, i64 noundef %mp)
  %cmp60 = icmp eq i32 %call59, 0
  br i1 %cmp60, label %land.lhs.true61, label %if.end121

land.lhs.true61:                                  ; preds = %if.else58
  %z62 = getelementptr inbounds nuw i8, ptr %R, i64 2080
  %4 = load i32, ptr %z62, align 8
  %cmp65 = icmp eq i32 %4, 0
  br i1 %cmp65, label %if.then66, label %if.end121

if.then66:                                        ; preds = %land.lhs.true61
  %5 = load i32, ptr %R, align 8
  %cmp70 = icmp eq i32 %5, 0
  br i1 %cmp70, label %land.lhs.true71, label %if.else96

land.lhs.true71:                                  ; preds = %if.then66
  %y72 = getelementptr inbounds nuw i8, ptr %R, i64 1040
  %6 = load i32, ptr %y72, align 8
  %cmp75 = icmp eq i32 %6, 0
  br i1 %cmp75, label %if.then76, label %if.else96

if.then76:                                        ; preds = %land.lhs.true71
  %z77 = getelementptr inbounds nuw i8, ptr %B, i64 2080
  %7 = load i32, ptr %z77, align 8
  %cmp80 = icmp eq i32 %7, 0
  br i1 %cmp80, label %if.then81, label %if.else93

if.then81:                                        ; preds = %if.then76
  %call82 = tail call i32 @wc_ecc_copy_point(ptr noundef nonnull %B, ptr noundef nonnull %R)
  %cmp83 = icmp eq i32 %call82, 0
  br i1 %cmp83, label %if.end88, label %if.end121

if.end88:                                         ; preds = %if.then81
  %call87 = tail call i32 @sp_mont_norm(ptr noundef nonnull %z62, ptr noundef %modulus) #19
  %cmp89 = icmp eq i32 %call87, 0
  br i1 %cmp89, label %if.then90, label %if.end121

if.then90:                                        ; preds = %if.end88
  %call91 = tail call fastcc i32 @_ecc_projective_dbl_point(ptr noundef nonnull %R, ptr noundef nonnull %R, ptr noundef %modulus, i64 noundef %mp)
  br label %if.end121

if.else93:                                        ; preds = %if.then76
  %call94 = tail call fastcc i32 @_ecc_projective_dbl_point(ptr noundef nonnull %B, ptr noundef nonnull %R, ptr noundef %modulus, i64 noundef %mp)
  br label %if.end121

if.else96:                                        ; preds = %land.lhs.true71, %if.then66
  %call99 = tail call i32 @sp_set(ptr noundef nonnull %R, i64 noundef 0) #19
  %cmp100 = icmp eq i32 %call99, 0
  br i1 %cmp100, label %if.end105, label %if.end121

if.end105:                                        ; preds = %if.else96
  %y102 = getelementptr inbounds nuw i8, ptr %R, i64 1040
  %call104 = tail call i32 @sp_set(ptr noundef nonnull %y102, i64 noundef 0) #19
  %cmp106 = icmp eq i32 %call104, 0
  br i1 %cmp106, label %if.end111, label %if.end121

if.end111:                                        ; preds = %if.end105
  %call110 = tail call i32 @sp_set(ptr noundef nonnull %z62, i64 noundef 1) #19
  %cmp112 = icmp eq i32 %call110, 0
  %cmp114 = icmp ne ptr %infinity, null
  %or.cond1 = and i1 %cmp114, %cmp112
  br i1 %or.cond1, label %if.then115, label %if.end121

if.then115:                                       ; preds = %if.end111
  store i32 1, ptr %infinity, align 4
  br label %if.end121

if.end121:                                        ; preds = %if.else96, %if.end105, %if.then81, %if.else37, %if.end, %if.end13.i69, %if.end6.i64, %if.end.i60, %if.then13, %if.end13.i, %if.end6.i, %if.end.i, %if.then, %if.else58, %land.lhs.true61, %if.end111, %if.then115, %if.else93, %if.then90, %if.end88, %if.then35, %if.then55, %if.end51
  %err.0 = phi i32 [ %call36, %if.then35 ], [ 0, %if.then55 ], [ %call50, %if.end51 ], [ %call91, %if.then90 ], [ %call87, %if.end88 ], [ %call94, %if.else93 ], [ 0, %if.then115 ], [ %call110, %if.end111 ], [ 0, %land.lhs.true61 ], [ %call59, %if.else58 ], [ -170, %if.then ], [ %call.i, %if.end.i ], [ %call10.i, %if.end6.i ], [ %call17.i, %if.end13.i ], [ -170, %if.then13 ], [ %call.i61, %if.end.i60 ], [ %call10.i67, %if.end6.i64 ], [ %call17.i72, %if.end13.i69 ], [ %call45, %if.end ], [ %call40, %if.else37 ], [ %call82, %if.then81 ], [ %call104, %if.end105 ], [ %call99, %if.else96 ]
  ret i32 %err.0
}